target datalayout = "e-m:e-p270:32:32-p271:32:32-p272:64:64-i64:64-i128:128-f80:128-n8:16:32:64-S128"
target triple = "x86_64-unknown-linux-gnu"

%"class.node::MemoryRetainer" = type { ptr }
%"class.node::SocketAddress" = type { %"class.node::MemoryRetainer", %struct.sockaddr_storage }
%struct.sockaddr_storage = type { i16, [118 x i8], i64 }
%"struct.node::quic::Endpoint::Options" = type <{ %"class.node::MemoryRetainer", %"class.node::SocketAddress", i64, i64, i64, i64, i64, i64, i64, i64, i64, i8, i8, [2 x i8], i32, %"class.node::quic::TokenSecret", %"class.node::quic::TokenSecret", i8, [3 x i8], i32, i32, i8, [3 x i8] }>
%"class.node::quic::TokenSecret" = type { %"class.node::MemoryRetainer", [16 x i8] }
%"class.v8::IndirectHandleBase" = type { ptr }
%"class.node::quic::Endpoint::UDP" = type <{ %"class.node::MemoryRetainer", %"class.node::BaseObjectPtrImpl", i8, i8, [6 x i8] }>
%"class.node::BaseObjectPtrImpl" = type { %union.anon }
%union.anon = type { ptr }
%"class.node::BaseObject" = type { %"class.node::MemoryRetainer", %"class.v8::Global", ptr, ptr }
%"class.v8::Global" = type { %"class.v8::PersistentBase" }
%"class.v8::PersistentBase" = type { %"class.v8::IndirectHandleBase" }
%struct.uv__queue = type { ptr, ptr }
%"class.node::ListNode" = type { ptr, ptr }
%"class.node::quic::Endpoint::UDP::Impl" = type { %"class.node::HandleWrap", %struct.uv_udp_s, ptr }
%"class.node::HandleWrap" = type { %"class.node::AsyncWrap", i32, %"class.node::ListNode", ptr }
%"class.node::AsyncWrap" = type { %"class.node::BaseObject", i32, i8, double, double }
%struct.uv_udp_s = type { ptr, ptr, i32, ptr, %struct.uv__queue, %union.anon.411, ptr, i32, i64, i64, ptr, ptr, %struct.uv__io_s, %struct.uv__queue, %struct.uv__queue }
%union.anon.411 = type { [4 x ptr] }
%struct.uv__io_s = type { ptr, %struct.uv__queue, %struct.uv__queue, i32, i32, i32 }

; Function Attrs: mustprogress nounwind uwtable
define linkonce_odr dso_local noundef ptr @_ZNK4node17BaseObjectPtrImplINS_4quic8Endpoint3UDP4ImplELb0EE15get_base_objectEv(ptr noundef nonnull align 8 dereferenceable(8) %this) #4 comdat align 2 {
entry:
  %this.addr = alloca ptr, align 8
  store ptr %this, ptr %this.addr, align 8
  %this1 = load ptr, ptr %this.addr, align 8
  %data_ = getelementptr inbounds %"class.node::BaseObjectPtrImpl", ptr %this1, i32 0, i32 0
  %0 = load ptr, ptr %data_, align 8
  ret ptr %0
}

; Function Attrs: mustprogress nounwind uwtable
define linkonce_odr dso_local noundef ptr @_ZNK4node17BaseObjectPtrImplINS_4quic8Endpoint3UDP4ImplELb0EE3getEv(ptr noundef nonnull align 8 dereferenceable(8) %this) #4 comdat align 2 {
entry:
  %this.addr = alloca ptr, align 8
  store ptr %this, ptr %this.addr, align 8
  %this1 = load ptr, ptr %this.addr, align 8
  %call = call noundef ptr @_ZNK4node17BaseObjectPtrImplINS_4quic8Endpoint3UDP4ImplELb0EE15get_base_objectEv(ptr noundef nonnull align 8 dereferenceable(8) %this1)
  ret ptr %call
}

; Function Attrs: mustprogress nounwind uwtable
define linkonce_odr dso_local noundef zeroext i1 @_ZNK4node17BaseObjectPtrImplINS_4quic8Endpoint3UDP4ImplELb0EEcvbEv(ptr noundef nonnull align 8 dereferenceable(8) %this) #4 comdat align 2 {
entry:
  %this.addr = alloca ptr, align 8
  store ptr %this, ptr %this.addr, align 8
  %this1 = load ptr, ptr %this.addr, align 8
  %call = call noundef ptr @_ZNK4node17BaseObjectPtrImplINS_4quic8Endpoint3UDP4ImplELb0EE3getEv(ptr noundef nonnull align 8 dereferenceable(8) %this1)
  %cmp = icmp ne ptr %call, null
  ret i1 %cmp
}

; Function Attrs: mustprogress nounwind uwtable
define linkonce_odr dso_local noundef ptr @_ZNK4node13SocketAddress4dataEv(ptr noundef nonnull align 8 dereferenceable(136) %this) #4 comdat align 2 {
entry:
  %this.addr = alloca ptr, align 8
  store ptr %this, ptr %this.addr, align 8
  %this1 = load ptr, ptr %this.addr, align 8
  %address_ = getelementptr inbounds %"class.node::SocketAddress", ptr %this1, i32 0, i32 1
  ret ptr %address_
}

; Function Attrs: mustprogress nounwind uwtable
define linkonce_odr dso_local noundef i32 @_ZNK4node13SocketAddress6familyEv(ptr noundef nonnull align 8 dereferenceable(136) %this) #4 comdat align 2 {
entry:
  %this.addr = alloca ptr, align 8
  store ptr %this, ptr %this.addr, align 8
  %this1 = load ptr, ptr %this.addr, align 8
  %address_ = getelementptr inbounds %"class.node::SocketAddress", ptr %this1, i32 0, i32 1
  %ss_family = getelementptr inbounds %struct.sockaddr_storage, ptr %address_, i32 0, i32 0
  %0 = load i16, ptr %ss_family, align 8
  %conv = zext i16 %0 to i32
  ret i32 %conv
}

; Function Attrs: mustprogress nounwind uwtable
define linkonce_odr dso_local noundef zeroext i1 @_ZNK4node10HandleWrap15IsHandleClosingEv(ptr noundef nonnull align 8 dereferenceable(88) %this) #4 comdat align 2 {
entry:
  %this.addr = alloca ptr, align 8
  store ptr %this, ptr %this.addr, align 8
  %this1 = load ptr, ptr %this.addr, align 8
  %state_ = getelementptr inbounds %"class.node::HandleWrap", ptr %this1, i32 0, i32 1
  %0 = load i32, ptr %state_, align 8
  %cmp = icmp eq i32 %0, 1
  br i1 %cmp, label %lor.end, label %lor.rhs

lor.rhs:                                          ; preds = %entry
  %state_2 = getelementptr inbounds %"class.node::HandleWrap", ptr %this1, i32 0, i32 1
  %1 = load i32, ptr %state_2, align 8
  %cmp3 = icmp eq i32 %1, 2
  br label %lor.end

lor.end:                                          ; preds = %lor.rhs, %entry
  %2 = phi i1 [ true, %entry ], [ %cmp3, %lor.rhs ]
  ret i1 %2
}

; Function Attrs: mustprogress nounwind uwtable
define linkonce_odr dso_local noundef ptr @_ZNK4node17BaseObjectPtrImplINS_4quic8Endpoint3UDP4ImplELb0EEptEv(ptr noundef nonnull align 8 dereferenceable(8) %this) #4 comdat align 2 {
entry:
  %this.addr = alloca ptr, align 8
  store ptr %this, ptr %this.addr, align 8
  %this1 = load ptr, ptr %this.addr, align 8
  %call = call noundef ptr @_ZNK4node17BaseObjectPtrImplINS_4quic8Endpoint3UDP4ImplELb0EE3getEv(ptr noundef nonnull align 8 dereferenceable(8) %this1)
  ret ptr %call
}

; Function Attrs: mustprogress nounwind uwtable
define dso_local noundef zeroext i1 @_ZNK4node4quic8Endpoint3UDP9is_closedEv(ptr noundef nonnull align 8 dereferenceable(24) %this) #4 align 2 {
entry:
  %this.addr = alloca ptr, align 8
  store ptr %this, ptr %this.addr, align 8
  %this1 = load ptr, ptr %this.addr, align 8
  %impl_ = getelementptr inbounds %"class.node::quic::Endpoint::UDP", ptr %this1, i32 0, i32 1
  %call = call noundef zeroext i1 @_ZNK4node17BaseObjectPtrImplINS_4quic8Endpoint3UDP4ImplELb0EEcvbEv(ptr noundef nonnull align 8 dereferenceable(8) %impl_)
  %lnot = xor i1 %call, true
  ret i1 %lnot
}

; Function Attrs: mustprogress nounwind uwtable
define dso_local noundef i32 @_ZN4node4quic8Endpoint3UDP4BindERKNS1_7OptionsE(ptr noundef nonnull align 8 dereferenceable(24) %this, ptr noundef nonnull align 8 dereferenceable(288) %options) #4 align 2 {
entry:
  %retval = alloca i32, align 4
  %this.addr = alloca ptr, align 8
  %options.addr = alloca ptr, align 8
  %flags = alloca i32, align 4
  %err = alloca i32, align 4
  %size = alloca i32, align 4
  store ptr %this, ptr %this.addr, align 8
  store ptr %options, ptr %options.addr, align 8
  %this1 = load ptr, ptr %this.addr, align 8
  %is_bound_ = getelementptr inbounds %"class.node::quic::Endpoint::UDP", ptr %this1, i32 0, i32 2
  %0 = load i8, ptr %is_bound_, align 8
  %tobool = trunc i8 %0 to i1
  br i1 %tobool, label %if.then, label %if.end

if.then:                                          ; preds = %entry
  store i32 -114, ptr %retval, align 4
  br label %return

if.end:                                           ; preds = %entry
  %call = call noundef zeroext i1 @_ZNK4node4quic8Endpoint3UDP9is_closedEv(ptr noundef nonnull align 8 dereferenceable(24) %this1)
  br i1 %call, label %if.then4, label %lor.lhs.false

lor.lhs.false:                                    ; preds = %if.end
  %impl_ = getelementptr inbounds %"class.node::quic::Endpoint::UDP", ptr %this1, i32 0, i32 1
  %call2 = call noundef ptr @_ZNK4node17BaseObjectPtrImplINS_4quic8Endpoint3UDP4ImplELb0EEptEv(ptr noundef nonnull align 8 dereferenceable(8) %impl_)
  %call3 = call noundef zeroext i1 @_ZNK4node10HandleWrap15IsHandleClosingEv(ptr noundef nonnull align 8 dereferenceable(88) %call2)
  br i1 %call3, label %if.then4, label %if.end5

if.then4:                                         ; preds = %lor.lhs.false, %if.end
  store i32 -9, ptr %retval, align 4
  br label %return

if.end5:                                          ; preds = %lor.lhs.false
  store i32 0, ptr %flags, align 4
  %1 = load ptr, ptr %options.addr, align 8
  %local_address = getelementptr inbounds %"struct.node::quic::Endpoint::Options", ptr %1, i32 0, i32 1
  %call6 = call noundef i32 @_ZNK4node13SocketAddress6familyEv(ptr noundef nonnull align 8 dereferenceable(136) %local_address)
  %cmp = icmp eq i32 %call6, 10
  br i1 %cmp, label %land.lhs.true, label %if.end9

land.lhs.true:                                    ; preds = %if.end5
  %2 = load ptr, ptr %options.addr, align 8
  %ipv6_only = getelementptr inbounds %"struct.node::quic::Endpoint::Options", ptr %2, i32 0, i32 17
  %3 = load i8, ptr %ipv6_only, align 8
  %tobool7 = trunc i8 %3 to i1
  br i1 %tobool7, label %if.then8, label %if.end9

if.then8:                                         ; preds = %land.lhs.true
  %4 = load i32, ptr %flags, align 4
  %or = or i32 %4, 1
  store i32 %or, ptr %flags, align 4
  br label %if.end9

if.end9:                                          ; preds = %if.then8, %land.lhs.true, %if.end5
  %impl_10 = getelementptr inbounds %"class.node::quic::Endpoint::UDP", ptr %this1, i32 0, i32 1
  %call11 = call noundef ptr @_ZNK4node17BaseObjectPtrImplINS_4quic8Endpoint3UDP4ImplELb0EEptEv(ptr noundef nonnull align 8 dereferenceable(8) %impl_10)
  %handle_ = getelementptr inbounds %"class.node::quic::Endpoint::UDP::Impl", ptr %call11, i32 0, i32 1
  %5 = load ptr, ptr %options.addr, align 8
  %local_address12 = getelementptr inbounds %"struct.node::quic::Endpoint::Options", ptr %5, i32 0, i32 1
  %call13 = call noundef ptr @_ZNK4node13SocketAddress4dataEv(ptr noundef nonnull align 8 dereferenceable(136) %local_address12)
  %6 = load i32, ptr %flags, align 4
  %call14 = call i32 @uv_udp_bind(ptr noundef %handle_, ptr noundef %call13, i32 noundef %6)
  store i32 %call14, ptr %err, align 4
  %7 = load i32, ptr %err, align 4
  %tobool15 = icmp ne i32 %7, 0
  br i1 %tobool15, label %if.end48, label %if.then16

if.then16:                                        ; preds = %if.end9
  %is_bound_17 = getelementptr inbounds %"class.node::quic::Endpoint::UDP", ptr %this1, i32 0, i32 2
  store i8 1, ptr %is_bound_17, align 8
  %8 = load ptr, ptr %options.addr, align 8
  %udp_receive_buffer_size = getelementptr inbounds %"struct.node::quic::Endpoint::Options", ptr %8, i32 0, i32 19
  %9 = load i32, ptr %udp_receive_buffer_size, align 4
  store i32 %9, ptr %size, align 4
  %10 = load i32, ptr %size, align 4
  %cmp18 = icmp sgt i32 %10, 0
  br i1 %cmp18, label %if.then19, label %if.end27

if.then19:                                        ; preds = %if.then16
  %impl_20 = getelementptr inbounds %"class.node::quic::Endpoint::UDP", ptr %this1, i32 0, i32 1
  %call21 = call noundef ptr @_ZNK4node17BaseObjectPtrImplINS_4quic8Endpoint3UDP4ImplELb0EEptEv(ptr noundef nonnull align 8 dereferenceable(8) %impl_20)
  %handle_22 = getelementptr inbounds %"class.node::quic::Endpoint::UDP::Impl", ptr %call21, i32 0, i32 1
  %call23 = call i32 @uv_recv_buffer_size(ptr noundef %handle_22, ptr noundef %size)
  store i32 %call23, ptr %err, align 4
  %11 = load i32, ptr %err, align 4
  %tobool24 = icmp ne i32 %11, 0
  br i1 %tobool24, label %if.then25, label %if.end26

if.then25:                                        ; preds = %if.then19
  %12 = load i32, ptr %err, align 4
  store i32 %12, ptr %retval, align 4
  br label %return

if.end26:                                         ; preds = %if.then19
  br label %if.end27

if.end27:                                         ; preds = %if.end26, %if.then16
  %13 = load ptr, ptr %options.addr, align 8
  %udp_send_buffer_size = getelementptr inbounds %"struct.node::quic::Endpoint::Options", ptr %13, i32 0, i32 20
  %14 = load i32, ptr %udp_send_buffer_size, align 8
  store i32 %14, ptr %size, align 4
  %15 = load i32, ptr %size, align 4
  %cmp28 = icmp sgt i32 %15, 0
  br i1 %cmp28, label %if.then29, label %if.end37

if.then29:                                        ; preds = %if.end27
  %impl_30 = getelementptr inbounds %"class.node::quic::Endpoint::UDP", ptr %this1, i32 0, i32 1
  %call31 = call noundef ptr @_ZNK4node17BaseObjectPtrImplINS_4quic8Endpoint3UDP4ImplELb0EEptEv(ptr noundef nonnull align 8 dereferenceable(8) %impl_30)
  %handle_32 = getelementptr inbounds %"class.node::quic::Endpoint::UDP::Impl", ptr %call31, i32 0, i32 1
  %call33 = call i32 @uv_send_buffer_size(ptr noundef %handle_32, ptr noundef %size)
  store i32 %call33, ptr %err, align 4
  %16 = load i32, ptr %err, align 4
  %tobool34 = icmp ne i32 %16, 0
  br i1 %tobool34, label %if.then35, label %if.end36

if.then35:                                        ; preds = %if.then29
  %17 = load i32, ptr %err, align 4
  store i32 %17, ptr %retval, align 4
  br label %return

if.end36:                                         ; preds = %if.then29
  br label %if.end37

if.end37:                                         ; preds = %if.end36, %if.end27
  %18 = load ptr, ptr %options.addr, align 8
  %udp_ttl = getelementptr inbounds %"struct.node::quic::Endpoint::Options", ptr %18, i32 0, i32 21
  %19 = load i8, ptr %udp_ttl, align 4
  %conv = zext i8 %19 to i32
  store i32 %conv, ptr %size, align 4
  %20 = load i32, ptr %size, align 4
  %cmp38 = icmp sgt i32 %20, 0
  br i1 %cmp38, label %if.then39, label %if.end47

if.then39:                                        ; preds = %if.end37
  %impl_40 = getelementptr inbounds %"class.node::quic::Endpoint::UDP", ptr %this1, i32 0, i32 1
  %call41 = call noundef ptr @_ZNK4node17BaseObjectPtrImplINS_4quic8Endpoint3UDP4ImplELb0EEptEv(ptr noundef nonnull align 8 dereferenceable(8) %impl_40)
  %handle_42 = getelementptr inbounds %"class.node::quic::Endpoint::UDP::Impl", ptr %call41, i32 0, i32 1
  %21 = load i32, ptr %size, align 4
  %call43 = call i32 @uv_udp_set_ttl(ptr noundef %handle_42, i32 noundef %21)
  store i32 %call43, ptr %err, align 4
  %22 = load i32, ptr %err, align 4
  %tobool44 = icmp ne i32 %22, 0
  br i1 %tobool44, label %if.then45, label %if.end46

if.then45:                                        ; preds = %if.then39
  %23 = load i32, ptr %err, align 4
  store i32 %23, ptr %retval, align 4
  br label %return

if.end46:                                         ; preds = %if.then39
  br label %if.end47

if.end47:                                         ; preds = %if.end46, %if.end37
  br label %if.end48

if.end48:                                         ; preds = %if.end47, %if.end9
  %24 = load i32, ptr %err, align 4
  store i32 %24, ptr %retval, align 4
  br label %return

return:                                           ; preds = %if.end48, %if.then45, %if.then35, %if.then25, %if.then4, %if.then
  %25 = load i32, ptr %retval, align 4
  ret i32 %25
}