; Function Attrs: mustprogress nounwind uwtable
define dso_local noundef i32 @_ZN4node4quic8Endpoint3UDP4BindERKNS1_7OptionsE(ptr nocapture noundef nonnull align 8 dereferenceable(24) %this, ptr noundef nonnull align 8 dereferenceable(288) %options) local_unnamed_addr #3 align 2 {
entry:
  %size = alloca i32, align 4
  %is_bound_ = getelementptr inbounds i8, ptr %this, i64 16
  %0 = load i8, ptr %is_bound_, align 8
  %1 = and i8 %0, 1
  %tobool.not = icmp eq i8 %1, 0
  br i1 %tobool.not, label %if.end, label %return

if.end:                                           ; preds = %entry
  %impl_.i = getelementptr inbounds i8, ptr %this, i64 8
  %2 = load ptr, ptr %impl_.i, align 8
  %cmp.i.not.i = icmp eq ptr %2, null
  br i1 %cmp.i.not.i, label %return, label %lor.lhs.false

lor.lhs.false:                                    ; preds = %if.end
  %state_.i = getelementptr inbounds i8, ptr %2, i64 56
  %3 = load i32, ptr %state_.i, align 8
  %4 = add i32 %3, -1
  %spec.select.i = icmp ult i32 %4, 2
  br i1 %spec.select.i, label %return, label %if.end5

if.end5:                                          ; preds = %lor.lhs.false
  %address_.i = getelementptr inbounds i8, ptr %options, i64 16
  %5 = load i16, ptr %address_.i, align 8
  %cmp = icmp eq i16 %5, 10
  %ipv6_only = getelementptr inbounds i8, ptr %options, i64 272
  %6 = load i8, ptr %ipv6_only, align 8
  %7 = and i8 %6, 1
  %spec.select = zext nneg i8 %7 to i32
  %flags.0 = select i1 %cmp, i32 %spec.select, i32 0
  %handle_ = getelementptr inbounds i8, ptr %2, i64 88
  %call14 = tail call i32 @uv_udp_bind(ptr noundef nonnull %handle_, ptr noundef nonnull %address_.i, i32 noundef %flags.0) #21
  %tobool15.not = icmp eq i32 %call14, 0
  br i1 %tobool15.not, label %if.then16, label %return

if.then16:                                        ; preds = %if.end5
  store i8 1, ptr %is_bound_, align 8
  %udp_receive_buffer_size = getelementptr inbounds i8, ptr %options, i64 276
  %8 = load i32, ptr %udp_receive_buffer_size, align 4
  store i32 %8, ptr %size, align 4
  %cmp18 = icmp sgt i32 %8, 0
  br i1 %cmp18, label %if.then19, label %if.end27

if.then19:                                        ; preds = %if.then16
  %9 = load ptr, ptr %impl_.i, align 8
  %handle_22 = getelementptr inbounds i8, ptr %9, i64 88
  %call23 = call i32 @uv_recv_buffer_size(ptr noundef nonnull %handle_22, ptr noundef nonnull %size) #21
  %tobool24.not = icmp eq i32 %call23, 0
  br i1 %tobool24.not, label %if.end27, label %return

if.end27:                                         ; preds = %if.then19, %if.then16
  %udp_send_buffer_size = getelementptr inbounds i8, ptr %options, i64 280
  %10 = load i32, ptr %udp_send_buffer_size, align 8
  store i32 %10, ptr %size, align 4
  %cmp28 = icmp sgt i32 %10, 0
  br i1 %cmp28, label %if.then29, label %if.end37

if.then29:                                        ; preds = %if.end27
  %11 = load ptr, ptr %impl_.i, align 8
  %handle_32 = getelementptr inbounds i8, ptr %11, i64 88
  %call33 = call i32 @uv_send_buffer_size(ptr noundef nonnull %handle_32, ptr noundef nonnull %size) #21
  %tobool34.not = icmp eq i32 %call33, 0
  br i1 %tobool34.not, label %if.end37, label %return

if.end37:                                         ; preds = %if.then29, %if.end27
  %udp_ttl = getelementptr inbounds i8, ptr %options, i64 284
  %12 = load i8, ptr %udp_ttl, align 4
  %conv = zext i8 %12 to i32
  store i32 %conv, ptr %size, align 4
  %cmp38.not = icmp eq i8 %12, 0
  br i1 %cmp38.not, label %return, label %if.then39

if.then39:                                        ; preds = %if.end37
  %13 = load ptr, ptr %impl_.i, align 8
  %handle_42 = getelementptr inbounds i8, ptr %13, i64 88
  %call43 = call i32 @uv_udp_set_ttl(ptr noundef nonnull %handle_42, i32 noundef %conv) #21
  br label %return

return:                                           ; preds = %if.then39, %if.end5, %if.end37, %if.then29, %if.then19, %if.end, %lor.lhs.false, %entry
  %retval.0 = phi i32 [ -114, %entry ], [ -9, %lor.lhs.false ], [ -9, %if.end ], [ %call23, %if.then19 ], [ %call33, %if.then29 ], [ %call14, %if.end5 ], [ 0, %if.end37 ], [ %call43, %if.then39 ]
  ret i32 %retval.0
}